Certificate:
    Data:
        Version: 3 (0x2)
        Serial Number: 1 (0x1)
    Signature Algorithm: sha1WithRSAEncryption
        Issuer: CN=Your_NAME, ST=Your_STATE, C=CO/emailAddress=YOUR_EMAIL, O=YOUR_ORG_NAME
        Validity
            Not Before: Oct 21 09:38:34 2014 GMT
            Not After : Oct 21 09:38:34 2015 GMT
        Subject: C=XY, ST=Some State, O=My Large Organization Name, OU=My Subunit of Large Organization, CN=somename.somewhere.com/emailAddress=root@somename.somewhere.com
        Subject Public Key Info:
            Public Key Algorithm: rsaEncryption
                Public-Key: (512 bit)
                Modulus:
                    00:e4:03:9a:f7:82:15:8d:75:f9:9f:36:37:5f:63:
                    7b:c6:42:5d:de:12:a7:31:09:89:1f:92:f4:49:6b:
                    0e:d5:9a:ce:1c:21:1b:d3:17:6e:06:0a:b8:e5:a8:
                    e3:47:e1:56:0c:39:07:93:8c:37:ec:81:82:fd:06:
                    50:ca:a0:38:5d
                Exponent: 65537 (0x10001)
        X509v3 extensions:
            X509v3 Basic Constraints: 
                CA:FALSE
    Signature Algorithm: sha1WithRSAEncryption
         2b:0b:da:71:57:50:f5:ba:83:f3:0a:bb:f1:7a:09:0e:d8:07:
         18:04:27:e8:5a:6e:5e:8c:83:ae:e6:2f:59:37:57:34:3e:d4:
         ad:75:51:eb:e2:a3:c5:c3:53:5a:03:8d:d9:8c:f1:35:d4:df:
         10:80:7f:17:9d:b3:b0:fc:28:d7:76:49:da:c4:cc:ec:c5:d9:
         ee:9f:68:ed:ff:cc:8e:29:86:d3:16:a8:14:c7:38:6d:62:87:
         29:f0:15:2a:5c:cc:ac:31:53:f7:a0:d6:e3:a5:8e:00:1f:16:
         fd:1b:d4:69:4b:cf:d2:3c:0c:a6:43:37:da:16:8c:ee:b7:d8:
         17:99:5d:7f:81:3f:7b:82:bd:f1:ee:a7:49:35:81:2a:b0:40:
         dd:14:cf:c0:c7:e7:90:92:1e:18:88:41:c4:ea:ad:31:0e:9c:
         41:96:d1:1b:b4:d2:60:bd:eb:d8:c6:fa:74:c8:95:0c:b0:28:
         33:d2:3f:3d:0f:e2:bb:0b:a9:ea:f3:1c:f2:9e:43:6a:22:55:
         01:c3:9e:17:25:ff:f8:4f:2e:28:23:46:80:df:46:7e:f5:10:
         ef:a8:71:86:d0:1d:0b:a4:c3:72:a0:36:ba:5b:02:8a:a0:b5:
         8c:a7:b0:27:03:19:5e:62:8c:36:8a:5b:2a:8b:9f:5e:fe:42:
         ee:68:88:4e
-----BEGIN CERTIFICATE-----
MIIC6TCCAdGgAwIBAgIBATANBgkqhkiG9w0BAQUFADBpMRIwEAYDVQQDFAlZb3Vy
X05BTUUxEzARBgNVBAgUCllvdXJfU1RBVEUxCzAJBgNVBAYTAkNPMRkwFwYJKoZI
hvcNAQkBFgpZT1VSX0VNQUlMMRYwFAYDVQQKFA1ZT1VSX09SR19OQU1FMB4XDTE0
MTAyMTA5MzgzNFoXDTE1MTAyMTA5MzgzNFowgb8xCzAJBgNVBAYTAlhZMRMwEQYD
VQQIEwpTb21lIFN0YXRlMSMwIQYDVQQKExpNeSBMYXJnZSBPcmdhbml6YXRpb24g
TmFtZTEpMCcGA1UECxMgTXkgU3VidW5pdCBvZiBMYXJnZSBPcmdhbml6YXRpb24x
HzAdBgNVBAMTFnNvbWVuYW1lLnNvbWV3aGVyZS5jb20xKjAoBgkqhkiG9w0BCQEW
G3Jvb3RAc29tZW5hbWUuc29tZXdoZXJlLmNvbTBcMA0GCSqGSIb3DQEBAQUAA0sA
MEgCQQDkA5r3ghWNdfmfNjdfY3vGQl3eEqcxCYkfkvRJaw7Vms4cIRvTF24GCrjl
qONH4VYMOQeTjDfsgYL9BlDKoDhdAgMBAAGjDTALMAkGA1UdEwQCMAAwDQYJKoZI
hvcNAQEFBQADggEBACsL2nFXUPW6g/MKu/F6CQ7YBxgEJ+habl6Mg67mL1k3VzQ+
1K11Uevio8XDU1oDjdmM8TXU3xCAfxeds7D8KNd2SdrEzOzF2e6faO3/zI4phtMW
qBTHOG1ihynwFSpczKwxU/eg1uOljgAfFv0b1GlLz9I8DKZDN9oWjO632BeZXX+B
P3uCvfHup0k1gSqwQN0Uz8DH55CSHhiIQcTqrTEOnEGW0Ru00mC969jG+nTIlQyw
KDPSPz0P4rsLqerzHPKeQ2oiVQHDnhcl//hPLigjRoDfRn71EO+ocYbQHQukw3Kg
NrpbAoqgtYynsCcDGV5ijDaKWyqLn17+Qu5oiE4=
-----END CERTIFICATE-----
