Certificate:
    Data:
        Version: 3 (0x2)
        Serial Number: 2 (0x2)
    Signature Algorithm: sha1WithRSAEncryption
        Issuer: CN=Your_NAME, ST=Your_STATE, C=CO/emailAddress=YOUR_EMAIL, O=YOUR_ORG_NAME
        Validity
            Not Before: Oct 21 09:39:19 2014 GMT
            Not After : Oct 21 09:39:19 2015 GMT
        Subject: C=IN, ST=Karnataka, O=CEM Solutions, OU=RnD, CN=glob/emailAddress=varadhan@cem-solutions.net
        Subject Public Key Info:
            Public Key Algorithm: rsaEncryption
                Public-Key: (512 bit)
                Modulus:
                    00:db:23:bf:f0:43:bf:f1:ce:ac:ad:40:c4:00:ee:
                    30:dc:a9:e5:66:d1:2b:46:30:79:1d:1a:b7:3d:f4:
                    c8:91:77:f9:f2:76:2d:6e:1b:39:cb:2f:8a:a6:b5:
                    a5:be:f2:95:8f:2e:d2:50:f1:ec:68:1c:01:a2:49:
                    48:07:74:7d:e5
                Exponent: 65537 (0x10001)
        X509v3 extensions:
            X509v3 Basic Constraints: 
                CA:FALSE
    Signature Algorithm: sha1WithRSAEncryption
         04:32:8f:d9:29:d7:73:e5:5b:d3:d4:17:d9:37:b3:62:80:64:
         9f:bc:8d:8b:20:82:d5:fc:23:e3:5b:e1:25:86:6a:70:07:43:
         2b:59:ad:aa:2e:06:1d:a5:60:8f:9b:f9:43:7a:1e:0d:54:0b:
         43:d8:de:32:4c:de:fe:62:e4:7b:a4:f8:b1:cc:4b:ac:82:2a:
         81:9d:09:de:d6:d1:05:bf:a0:44:f3:60:5a:96:bb:73:67:1b:
         1a:90:b3:88:60:89:48:11:6e:25:a7:e0:e7:f6:94:ad:24:25:
         15:75:e8:c1:eb:da:85:c6:0f:48:55:e8:28:01:16:3d:ca:cd:
         a9:2c:77:83:3b:2d:97:a5:45:23:0d:8b:c2:c3:fd:9f:78:08:
         36:74:f4:b8:5f:52:37:0a:e6:85:4e:eb:9b:0d:c6:97:76:e8:
         12:59:20:7a:c3:de:ad:be:6d:13:54:3a:5d:d2:0f:6d:01:2d:
         02:c8:f0:df:f0:c9:3f:43:e8:56:3f:b3:d1:f5:8e:23:9c:31:
         be:f5:46:08:10:80:be:e0:ce:b2:d6:5d:c6:8d:c8:c4:34:8c:
         36:77:b6:3b:34:20:5d:cd:31:94:8a:01:98:01:d6:17:66:d1:
         71:37:31:3d:9a:11:8d:bc:8f:2f:1e:3f:df:7e:57:48:b3:a0:
         3f:39:fd:7c
-----BEGIN CERTIFICATE-----
MIICqzCCAZOgAwIBAgIBAjANBgkqhkiG9w0BAQUFADBpMRIwEAYDVQQDFAlZb3Vy
X05BTUUxEzARBgNVBAgUCllvdXJfU1RBVEUxCzAJBgNVBAYTAkNPMRkwFwYJKoZI
hvcNAQkBFgpZT1VSX0VNQUlMMRYwFAYDVQQKFA1ZT1VSX09SR19OQU1FMB4XDTE0
MTAyMTA5MzkxOVoXDTE1MTAyMTA5MzkxOVowgYExCzAJBgNVBAYTAklOMRIwEAYD
VQQIEwlLYXJuYXRha2ExFjAUBgNVBAoTDUNFTSBTb2x1dGlvbnMxDDAKBgNVBAsT
A1JuRDENMAsGA1UEAxMEZ2xvYjEpMCcGCSqGSIb3DQEJARYadmFyYWRoYW5AY2Vt
LXNvbHV0aW9ucy5uZXQwXDANBgkqhkiG9w0BAQEFAANLADBIAkEA2yO/8EO/8c6s
rUDEAO4w3KnlZtErRjB5HRq3PfTIkXf58nYtbhs5yy+KprWlvvKVjy7SUPHsaBwB
oklIB3R95QIDAQABow0wCzAJBgNVHRMEAjAAMA0GCSqGSIb3DQEBBQUAA4IBAQAE
Mo/ZKddz5VvT1BfZN7NigGSfvI2LIILV/CPjW+ElhmpwB0MrWa2qLgYdpWCPm/lD
eh4NVAtD2N4yTN7+YuR7pPixzEusgiqBnQne1tEFv6BE82BalrtzZxsakLOIYIlI
EW4lp+Dn9pStJCUVdejB69qFxg9IVegoARY9ys2pLHeDOy2XpUUjDYvCw/2feAg2
dPS4X1I3CuaFTuubDcaXdugSWSB6w96tvm0TVDpd0g9tAS0CyPDf8Mk/Q+hWP7PR
9Y4jnDG+9UYIEIC+4M6y1l3GjcjENIw2d7Y7NCBdzTGUigGYAdYXZtFxNzE9mhGN
vI8vHj/ffldIs6A/Of18
-----END CERTIFICATE-----
